target datalayout = "e-m:e-p270:32:32-p271:32:32-p272:64:64-i64:64-i128:128-f80:128-n8:16:32:64-S128"
target triple = "x86_64-pc-linux-gnu"

%struct.X509_VERIFY_PARAM_st = type { ptr, i64, i64, i64, i32, i32, i32, ptr, ptr }

; Function Attrs: nounwind uwtable
define hidden i32 @X509_VERIFY_PARAM_set_flags(ptr noundef %0, i64 noundef %1) #0 {
  %3 = alloca ptr, align 8
  %4 = alloca i64, align 8
  store ptr %0, ptr %3, align 8, !tbaa !6
  store i64 %1, ptr %4, align 8, !tbaa !34
  %5 = load i64, ptr %4, align 8, !tbaa !34
  %6 = load ptr, ptr %3, align 8, !tbaa !6
  %7 = getelementptr inbounds nuw %struct.X509_VERIFY_PARAM_st, ptr %6, i32 0, i32 3
  %8 = load i64, ptr %7, align 8, !tbaa !23
  %9 = or i64 %8, %5
  store i64 %9, ptr %7, align 8, !tbaa !23
  %10 = load i64, ptr %4, align 8, !tbaa !34
  %11 = and i64 %10, 1920
  %12 = icmp ne i64 %11, 0
  br i1 %12, label %13, label %18

13:                                               ; preds = %2
  %14 = load ptr, ptr %3, align 8, !tbaa !6
  %15 = getelementptr inbounds nuw %struct.X509_VERIFY_PARAM_st, ptr %14, i32 0, i32 3
  %16 = load i64, ptr %15, align 8, !tbaa !23
  %17 = or i64 %16, 128
  store i64 %17, ptr %15, align 8, !tbaa !23
  br label %18

18:                                               ; preds = %13, %2
  ret i32 1
}