; Function Attrs: mustprogress nofree norecurse nosync nounwind willreturn memory(argmem: readwrite) uwtable
define hidden noundef i32 @X509_VERIFY_PARAM_set_flags(ptr noundef captures(none) %0, i64 noundef %1) local_unnamed_addr #7 {
  %3 = getelementptr inbounds nuw i8, ptr %0, i64 24
  %4 = load i64, ptr %3, align 8, !tbaa !28
  %5 = or i64 %4, %1
  %6 = and i64 %1, 1920
  %.not = icmp eq i64 %6, 0
  %7 = or i64 %5, 128
  %spec.select = select i1 %.not, i64 %5, i64 %7
  store i64 %spec.select, ptr %3, align 8, !tbaa !28
  ret i32 1
}